target datalayout = "e-m:e-p270:32:32-p271:32:32-p272:64:64-i64:64-i128:128-f80:128-n8:16:32:64-S128"
target triple = "x86_64-pc-linux-gnu"

; Function Attrs: nounwind uwtable
define internal i32 @icuCollationColl(ptr noundef %0, i32 noundef %1, ptr noundef %2, i32 noundef %3, ptr noundef %4) #0 {
  %6 = alloca i32, align 4
  %7 = alloca ptr, align 8
  %8 = alloca i32, align 4
  %9 = alloca ptr, align 8
  %10 = alloca i32, align 4
  %11 = alloca ptr, align 8
  %12 = alloca i32, align 4
  %13 = alloca ptr, align 8
  %14 = alloca i32, align 4
  store ptr %0, ptr %7, align 8, !tbaa !36
  store i32 %1, ptr %8, align 4, !tbaa !11
  store ptr %2, ptr %9, align 8, !tbaa !36
  store i32 %3, ptr %10, align 4, !tbaa !11
  store ptr %4, ptr %11, align 8, !tbaa !36
  call void @llvm.lifetime.start.p0(i64 4, ptr %12) #3
  call void @llvm.lifetime.start.p0(i64 8, ptr %13) #3
  %15 = load ptr, ptr %7, align 8, !tbaa !36
  store ptr %15, ptr %13, align 8, !tbaa !29
  %16 = load ptr, ptr %13, align 8, !tbaa !29
  %17 = load ptr, ptr %9, align 8, !tbaa !36
  %18 = load i32, ptr %8, align 4, !tbaa !11
  %19 = sdiv i32 %18, 2
  %20 = load ptr, ptr %11, align 8, !tbaa !36
  %21 = load i32, ptr %10, align 4, !tbaa !11
  %22 = sdiv i32 %21, 2
  %23 = call i32 @ucol_strcoll_70(ptr noundef %16, ptr noundef %17, i32 noundef %19, ptr noundef %20, i32 noundef %22)
  store i32 %23, ptr %12, align 4, !tbaa !11
  %24 = load i32, ptr %12, align 4, !tbaa !11
  switch i32 %24, label %28 [
    i32 -1, label %25
    i32 1, label %26
    i32 0, label %27
  ]

25:                                               ; preds = %5
  store i32 -1, ptr %6, align 4
  store i32 1, ptr %14, align 4
  br label %29

26:                                               ; preds = %5
  store i32 1, ptr %6, align 4
  store i32 1, ptr %14, align 4
  br label %29

27:                                               ; preds = %5
  store i32 0, ptr %6, align 4
  store i32 1, ptr %14, align 4
  br label %29

28:                                               ; preds = %5
  store i32 0, ptr %6, align 4
  store i32 1, ptr %14, align 4
  br label %29

29:                                               ; preds = %28, %27, %26, %25
  call void @llvm.lifetime.end.p0(i64 8, ptr %13) #3
  call void @llvm.lifetime.end.p0(i64 4, ptr %12) #3
  %30 = load i32, ptr %6, align 4
  ret i32 %30
}